; Function Attrs: mustprogress uwtable
define void @_ZN8QuantLib19QuantoVanillaOptionC2ERKN5boost10shared_ptrINS_17StrikedTypePayoffEEERKNS2_INS_8ExerciseEEE(ptr noundef nonnull align 8 dereferenceable(248) %this, ptr noundef %vtt, ptr nocapture noundef nonnull readonly align 8 dereferenceable(16) %payoff, ptr noundef nonnull align 8 dereferenceable(16) %exercise) unnamed_addr #9 align 2 personality ptr @__gxx_personality_v0 {
entry:
  %ref.tmp = alloca %"class.boost::shared_ptr.16", align 8
  call void @llvm.lifetime.start.p0(i64 16, ptr nonnull %ref.tmp) #24
  %0 = load ptr, ptr %payoff, align 8, !tbaa !48
  store ptr %0, ptr %ref.tmp, align 8, !tbaa !40
  %pn.i = getelementptr inbounds nuw i8, ptr %ref.tmp, i64 8
  %pn3.i = getelementptr inbounds nuw i8, ptr %payoff, i64 8
  %1 = load ptr, ptr %pn3.i, align 8, !tbaa !43
  store ptr %1, ptr %pn.i, align 8, !tbaa !43
  %cmp.not.i.i = icmp eq ptr %1, null
  br i1 %cmp.not.i.i, label %_ZN5boost10shared_ptrIN8QuantLib6PayoffEEC2INS1_17StrikedTypePayoffEEERKNS0_IT_EENS_6detail24sp_enable_if_convertibleIS6_S2_E4typeE.exit, label %if.then.i.i

if.then.i.i:                                      ; preds = %entry
  %use_count_.i.i.i = getelementptr inbounds nuw i8, ptr %1, i64 8
  %2 = atomicrmw add ptr %use_count_.i.i.i, i32 1 monotonic, align 4
  br label %_ZN5boost10shared_ptrIN8QuantLib6PayoffEEC2INS1_17StrikedTypePayoffEEERKNS0_IT_EENS_6detail24sp_enable_if_convertibleIS6_S2_E4typeE.exit

_ZN5boost10shared_ptrIN8QuantLib6PayoffEEC2INS1_17StrikedTypePayoffEEERKNS0_IT_EENS_6detail24sp_enable_if_convertibleIS6_S2_E4typeE.exit: ; preds = %entry, %if.then.i.i
  %3 = getelementptr inbounds i8, ptr %vtt, i64 8
  invoke void @_ZN8QuantLib14OneAssetOptionC2ERKN5boost10shared_ptrINS_6PayoffEEERKNS2_INS_8ExerciseEEE(ptr noundef nonnull align 8 dereferenceable(224) %this, ptr noundef nonnull %3, ptr noundef nonnull align 8 dereferenceable(16) %ref.tmp, ptr noundef nonnull align 8 dereferenceable(16) %exercise)
          to label %invoke.cont unwind label %lpad

invoke.cont:                                      ; preds = %_ZN5boost10shared_ptrIN8QuantLib6PayoffEEC2INS1_17StrikedTypePayoffEEERKNS0_IT_EENS_6detail24sp_enable_if_convertibleIS6_S2_E4typeE.exit
  %4 = load ptr, ptr %pn.i, align 8, !tbaa !43
  %cmp.not.i.i2 = icmp eq ptr %4, null
  br i1 %cmp.not.i.i2, label %_ZN5boost10shared_ptrIN8QuantLib6PayoffEED2Ev.exit, label %if.then.i.i3

if.then.i.i3:                                     ; preds = %invoke.cont
  %use_count_.i.i.i4 = getelementptr inbounds nuw i8, ptr %4, i64 8
  %5 = atomicrmw sub ptr %use_count_.i.i.i4, i32 1 acq_rel, align 4
  %cmp.i.i.i = icmp eq i32 %5, 1
  br i1 %cmp.i.i.i, label %if.then.i.i.i, label %_ZN5boost10shared_ptrIN8QuantLib6PayoffEED2Ev.exit

if.then.i.i.i:                                    ; preds = %if.then.i.i3
  %vtable.i.i.i = load ptr, ptr %4, align 8, !tbaa !33
  %vfn.i.i.i = getelementptr inbounds i8, ptr %vtable.i.i.i, i64 16
  %6 = load ptr, ptr %vfn.i.i.i, align 8
  invoke void %6(ptr noundef nonnull align 8 dereferenceable(16) %4)
          to label %.noexc.i.i unwind label %terminate.lpad.i.i

.noexc.i.i:                                       ; preds = %if.then.i.i.i
  %weak_count_.i.i.i.i = getelementptr inbounds nuw i8, ptr %4, i64 12
  %7 = atomicrmw sub ptr %weak_count_.i.i.i.i, i32 1 acq_rel, align 4
  %cmp.i.i.i.i = icmp eq i32 %7, 1
  br i1 %cmp.i.i.i.i, label %if.then.i.i.i.i, label %_ZN5boost10shared_ptrIN8QuantLib6PayoffEED2Ev.exit

if.then.i.i.i.i:                                  ; preds = %.noexc.i.i
  %vtable.i.i.i.i = load ptr, ptr %4, align 8, !tbaa !33
  %vfn.i.i.i.i = getelementptr inbounds i8, ptr %vtable.i.i.i.i, i64 24
  %8 = load ptr, ptr %vfn.i.i.i.i, align 8
  invoke void %8(ptr noundef nonnull align 8 dereferenceable(16) %4)
          to label %_ZN5boost10shared_ptrIN8QuantLib6PayoffEED2Ev.exit unwind label %terminate.lpad.i.i

terminate.lpad.i.i:                               ; preds = %if.then.i.i.i.i, %if.then.i.i.i
  %9 = landingpad { ptr, i32 }
          catch ptr null
  %10 = extractvalue { ptr, i32 } %9, 0
  call void @__clang_call_terminate(ptr %10) #25
  unreachable

_ZN5boost10shared_ptrIN8QuantLib6PayoffEED2Ev.exit: ; preds = %invoke.cont, %if.then.i.i3, %.noexc.i.i, %if.then.i.i.i.i
  call void @llvm.lifetime.end.p0(i64 16, ptr nonnull %ref.tmp) #24
  %11 = load ptr, ptr %vtt, align 8
  store ptr %11, ptr %this, align 8, !tbaa !33
  %12 = getelementptr inbounds i8, ptr %vtt, i64 104
  %13 = load ptr, ptr %12, align 8
  %vbase.offset.ptr = getelementptr i8, ptr %11, i64 -24
  %vbase.offset = load i64, ptr %vbase.offset.ptr, align 8
  %add.ptr = getelementptr inbounds i8, ptr %this, i64 %vbase.offset
  store ptr %13, ptr %add.ptr, align 8, !tbaa !33
  %14 = getelementptr inbounds i8, ptr %vtt, i64 112
  %15 = load ptr, ptr %14, align 8
  %vtable3 = load ptr, ptr %this, align 8, !tbaa !33
  %vbase.offset.ptr4 = getelementptr i8, ptr %vtable3, i64 -32
  %vbase.offset5 = load i64, ptr %vbase.offset.ptr4, align 8
  %add.ptr6 = getelementptr inbounds i8, ptr %this, i64 %vbase.offset5
  store ptr %15, ptr %add.ptr6, align 8, !tbaa !33
  ret void

lpad:                                             ; preds = %_ZN5boost10shared_ptrIN8QuantLib6PayoffEEC2INS1_17StrikedTypePayoffEEERKNS0_IT_EENS_6detail24sp_enable_if_convertibleIS6_S2_E4typeE.exit
  %16 = landingpad { ptr, i32 }
          cleanup
  call void @_ZN5boost10shared_ptrIN8QuantLib6PayoffEED2Ev(ptr noundef nonnull align 8 dereferenceable(16) %ref.tmp) #24
  call void @llvm.lifetime.end.p0(i64 16, ptr nonnull %ref.tmp) #24
  resume { ptr, i32 } %16
}